target datalayout = "e-m:e-p270:32:32-p271:32:32-p272:64:64-i64:64-i128:128-f80:128-n8:16:32:64-S128"
target triple = "x86_64-pc-linux-gnu"

%struct._expr = type { i32, %union.anon.37, i32, i32, i32, i32 }
%union.anon.37 = type { %struct.anon.40 }
%struct.anon.40 = type { ptr, i32, ptr }
%struct.anon.50 = type { ptr }

@PyExc_ValueError = external global ptr, align 8
@.str.42 = private unnamed_addr constant [36 x i8] c"field 'value' is required for Await\00", align 1

; Function Attrs: nounwind uwtable
define hidden ptr @_PyAST_Await(ptr noundef %0, i32 noundef %1, i32 noundef %2, i32 noundef %3, i32 noundef %4, ptr noundef %5) #0 {
  %7 = alloca ptr, align 8
  %8 = alloca ptr, align 8
  %9 = alloca i32, align 4
  %10 = alloca i32, align 4
  %11 = alloca i32, align 4
  %12 = alloca i32, align 4
  %13 = alloca ptr, align 8
  %14 = alloca ptr, align 8
  %15 = alloca i32, align 4
  store ptr %0, ptr %8, align 8, !tbaa !34
  store i32 %1, ptr %9, align 4, !tbaa !38
  store i32 %2, ptr %10, align 4, !tbaa !38
  store i32 %3, ptr %11, align 4, !tbaa !38
  store i32 %4, ptr %12, align 4, !tbaa !38
  store ptr %5, ptr %13, align 8, !tbaa !24
  call void @llvm.lifetime.start.p0(i64 8, ptr %14) #8
  %16 = load ptr, ptr %8, align 8, !tbaa !34
  %17 = icmp ne ptr %16, null
  br i1 %17, label %20, label %18

18:                                               ; preds = %6
  %19 = load ptr, ptr @PyExc_ValueError, align 8, !tbaa !13
  call void @PyErr_SetString(ptr noundef %19, ptr noundef @.str.42)
  store ptr null, ptr %7, align 8
  store i32 1, ptr %15, align 4
  br label %46

20:                                               ; preds = %6
  %21 = load ptr, ptr %13, align 8, !tbaa !24
  %22 = call ptr @_PyArena_Malloc(ptr noundef %21, i64 noundef 48)
  store ptr %22, ptr %14, align 8, !tbaa !34
  %23 = load ptr, ptr %14, align 8, !tbaa !34
  %24 = icmp ne ptr %23, null
  br i1 %24, label %26, label %25

25:                                               ; preds = %20
  store ptr null, ptr %7, align 8
  store i32 1, ptr %15, align 4
  br label %46

26:                                               ; preds = %20
  %27 = load ptr, ptr %14, align 8, !tbaa !34
  %28 = getelementptr inbounds nuw %struct._expr, ptr %27, i32 0, i32 0
  store i32 13, ptr %28, align 8, !tbaa !47
  %29 = load ptr, ptr %8, align 8, !tbaa !34
  %30 = load ptr, ptr %14, align 8, !tbaa !34
  %31 = getelementptr inbounds nuw %struct._expr, ptr %30, i32 0, i32 1
  %32 = getelementptr inbounds nuw %struct.anon.50, ptr %31, i32 0, i32 0
  store ptr %29, ptr %32, align 8, !tbaa !21
  %33 = load i32, ptr %9, align 4, !tbaa !38
  %34 = load ptr, ptr %14, align 8, !tbaa !34
  %35 = getelementptr inbounds nuw %struct._expr, ptr %34, i32 0, i32 2
  store i32 %33, ptr %35, align 8, !tbaa !49
  %36 = load i32, ptr %10, align 4, !tbaa !38
  %37 = load ptr, ptr %14, align 8, !tbaa !34
  %38 = getelementptr inbounds nuw %struct._expr, ptr %37, i32 0, i32 3
  store i32 %36, ptr %38, align 4, !tbaa !50
  %39 = load i32, ptr %11, align 4, !tbaa !38
  %40 = load ptr, ptr %14, align 8, !tbaa !34
  %41 = getelementptr inbounds nuw %struct._expr, ptr %40, i32 0, i32 4
  store i32 %39, ptr %41, align 8, !tbaa !51
  %42 = load i32, ptr %12, align 4, !tbaa !38
  %43 = load ptr, ptr %14, align 8, !tbaa !34
  %44 = getelementptr inbounds nuw %struct._expr, ptr %43, i32 0, i32 5
  store i32 %42, ptr %44, align 4, !tbaa !52
  %45 = load ptr, ptr %14, align 8, !tbaa !34
  store ptr %45, ptr %7, align 8
  store i32 1, ptr %15, align 4
  br label %46

46:                                               ; preds = %26, %25, %18
  call void @llvm.lifetime.end.p0(i64 8, ptr %14) #8
  %47 = load ptr, ptr %7, align 8
  ret ptr %47
}